target datalayout = "e-m:e-p270:32:32-p271:32:32-p272:64:64-i64:64-i128:128-f80:128-n8:16:32:64-S128"
target triple = "x86_64-pc-linux-gnu"

%struct.rb_data_type_struct = type { ptr, %struct.anon, ptr, ptr, i64 }
%struct.anon = type { ptr, ptr, ptr, ptr, [1 x ptr] }

@ossl_x509ext_type = internal constant %struct.rb_data_type_struct { ptr @.str.24, %struct.anon { ptr null, ptr @ossl_x509ext_free, ptr null, ptr null, [1 x ptr] zeroinitializer }, ptr null, ptr null, i64 33 }, align 8
@eX509ExtError = internal global i64 0, align 8
@rb_eRuntimeError = external global i64, align 8
@.str = private unnamed_addr constant [24 x i8] c"EXT wasn't initialized!\00", align 1

; Function Attrs: nounwind sspstrong uwtable
define internal i64 @ossl_x509ext_get_oid(i64 noundef %0) #0 {
  %2 = alloca i64, align 8
  %3 = alloca ptr, align 8
  %4 = alloca ptr, align 8
  %5 = alloca ptr, align 8
  %6 = alloca i64, align 8
  %7 = alloca i32, align 4
  store i64 %0, ptr %2, align 8, !tbaa !11
  call void @llvm.lifetime.start.p0(i64 8, ptr %3) #17
  call void @llvm.lifetime.start.p0(i64 8, ptr %4) #17
  call void @llvm.lifetime.start.p0(i64 8, ptr %5) #17
  call void @llvm.lifetime.start.p0(i64 8, ptr %6) #17
  call void @llvm.lifetime.start.p0(i64 4, ptr %7) #17
  br label %8

8:                                                ; preds = %1
  %9 = load i64, ptr %2, align 8, !tbaa !11
  %10 = call ptr @rb_check_typeddata(i64 noundef %9, ptr noundef @ossl_x509ext_type)
  store ptr %10, ptr %3, align 8, !tbaa !6
  %11 = load ptr, ptr %3, align 8, !tbaa !6
  %12 = icmp ne ptr %11, null
  br i1 %12, label %15, label %13

13:                                               ; preds = %8
  %14 = load i64, ptr @rb_eRuntimeError, align 8, !tbaa !11
  call void (i64, ptr, ...) @ossl_raise(i64 noundef %14, ptr noundef @.str) #18
  unreachable

15:                                               ; preds = %8
  br label %16

16:                                               ; preds = %15
  br label %17

17:                                               ; preds = %16
  %18 = load ptr, ptr %3, align 8, !tbaa !6
  %19 = call ptr @X509_EXTENSION_get_object(ptr noundef %18)
  store ptr %19, ptr %4, align 8, !tbaa !40
  %20 = load ptr, ptr %4, align 8, !tbaa !40
  %21 = call i32 @OBJ_obj2nid(ptr noundef %20)
  store i32 %21, ptr %7, align 4, !tbaa !19
  %22 = icmp ne i32 %21, 0
  br i1 %22, label %23, label %27

23:                                               ; preds = %17
  %24 = load i32, ptr %7, align 4, !tbaa !19
  %25 = call ptr @OBJ_nid2sn(i32 noundef %24)
  %26 = call i64 @rb_str_new_cstr(ptr noundef %25)
  store i64 %26, ptr %6, align 8, !tbaa !11
  br label %39

27:                                               ; preds = %17
  %28 = call ptr @BIO_s_mem()
  %29 = call ptr @BIO_new(ptr noundef %28)
  store ptr %29, ptr %5, align 8, !tbaa !44
  %30 = icmp ne ptr %29, null
  br i1 %30, label %33, label %31

31:                                               ; preds = %27
  %32 = load i64, ptr @eX509ExtError, align 8, !tbaa !11
  call void (i64, ptr, ...) @ossl_raise(i64 noundef %32, ptr noundef null) #18
  unreachable

33:                                               ; preds = %27
  %34 = load ptr, ptr %5, align 8, !tbaa !44
  %35 = load ptr, ptr %4, align 8, !tbaa !40
  %36 = call i32 @i2a_ASN1_OBJECT(ptr noundef %34, ptr noundef %35)
  %37 = load ptr, ptr %5, align 8, !tbaa !44
  %38 = call i64 @ossl_membio2str(ptr noundef %37)
  store i64 %38, ptr %6, align 8, !tbaa !11
  br label %39

39:                                               ; preds = %33, %23
  %40 = load i64, ptr %6, align 8, !tbaa !11
  call void @llvm.lifetime.end.p0(i64 4, ptr %7) #17
  call void @llvm.lifetime.end.p0(i64 8, ptr %6) #17
  call void @llvm.lifetime.end.p0(i64 8, ptr %5) #17
  call void @llvm.lifetime.end.p0(i64 8, ptr %4) #17
  call void @llvm.lifetime.end.p0(i64 8, ptr %3) #17
  ret i64 %40
}