; Function Attrs: nounwind sspstrong uwtable
define internal i64 @ossl_x509ext_get_oid(i64 noundef %0) #0 {
  %2 = tail call ptr @rb_check_typeddata(i64 noundef %0, ptr noundef nonnull @ossl_x509ext_type) #5
  %.not = icmp eq ptr %2, null
  br i1 %.not, label %3, label %5

3:                                                ; preds = %1
  %4 = load i64, ptr @rb_eRuntimeError, align 8, !tbaa !6
  tail call void (i64, ptr, ...) @ossl_raise(i64 noundef %4, ptr noundef nonnull @.str) #6
  unreachable

5:                                                ; preds = %1
  %6 = tail call ptr @X509_EXTENSION_get_object(ptr noundef nonnull %2) #5
  %7 = tail call i32 @OBJ_obj2nid(ptr noundef %6) #5
  %.not11 = icmp eq i32 %7, 0
  br i1 %.not11, label %11, label %8

8:                                                ; preds = %5
  %9 = tail call ptr @OBJ_nid2sn(i32 noundef %7) #5
  %10 = tail call i64 @rb_str_new_cstr(ptr noundef %9) #5
  br label %19

11:                                               ; preds = %5
  %12 = tail call ptr @BIO_s_mem() #5
  %13 = tail call ptr @BIO_new(ptr noundef %12) #5
  %.not12 = icmp eq ptr %13, null
  br i1 %.not12, label %14, label %16

14:                                               ; preds = %11
  %15 = load i64, ptr @eX509ExtError, align 8, !tbaa !6
  tail call void (i64, ptr, ...) @ossl_raise(i64 noundef %15, ptr noundef null) #6
  unreachable

16:                                               ; preds = %11
  %17 = tail call i32 @i2a_ASN1_OBJECT(ptr noundef nonnull %13, ptr noundef %6) #5
  %18 = tail call i64 @ossl_membio2str(ptr noundef nonnull %13) #5
  br label %19

19:                                               ; preds = %16, %8
  %.0 = phi i64 [ %10, %8 ], [ %18, %16 ]
  ret i64 %.0
}